target datalayout = "e-m:e-p270:32:32-p271:32:32-p272:64:64-i64:64-i128:128-f80:128-n8:16:32:64-S128"
target triple = "x86_64-pc-linux-gnu"

%"class.std::__cxx11::basic_string" = type { %"struct.std::__cxx11::basic_string<char>::_Alloc_hider", i64, %union.anon }
%"struct.std::__cxx11::basic_string<char>::_Alloc_hider" = type { ptr }
%union.anon = type { i64, [8 x i8] }

@_ZN5Error8r_error_E = external global i32, align 4
@_ZN8ConstantC1EPK4TypeRKNSt7__cxx1112basic_stringIcSt11char_traitsIcESaIcEEE = dso_local unnamed_addr alias void (ptr, ptr, ptr), ptr @_ZN8ConstantC2EPK4TypeRKNSt7__cxx1112basic_stringIcSt11char_traitsIcESaIcEEE

; Function Attrs: mustprogress nounwind uwtable
define linkonce_odr dso_local noundef i32 @_ZN5Error9get_errorEv() #5 comdat align 2 {
  %1 = load i32, ptr @_ZN5Error8r_error_E, align 4
  ret i32 %1
}

; Function Attrs: mustprogress uwtable
define dso_local noundef ptr @_ZN8Constant11make_randomEPK4Type(ptr noundef %0) #4 align 2 personality ptr @__gxx_personality_v0 {
  %2 = alloca ptr, align 8
  %3 = alloca ptr, align 8
  %4 = alloca %"class.std::__cxx11::basic_string", align 8
  %5 = alloca ptr, align 8
  %6 = alloca i32, align 4
  %7 = alloca i32, align 4
  store ptr %0, ptr %3, align 8
  %8 = load ptr, ptr %3, align 8
  call void @_ZL22GenerateRandomConstantB5cxx11PK4Type(ptr dead_on_unwind writable sret(%"class.std::__cxx11::basic_string") align 8 %4, ptr noundef %8)
  %9 = invoke noundef i32 @_ZN5Error9get_errorEv()
          to label %10 unwind label %13

10:                                               ; preds = %1
  %11 = icmp ne i32 %9, 0
  br i1 %11, label %12, label %17

12:                                               ; preds = %10
  store ptr null, ptr %2, align 8
  store i32 1, ptr %7, align 4
  br label %26

13:                                               ; preds = %17, %1
  %14 = landingpad { ptr, i32 }
          cleanup
  %15 = extractvalue { ptr, i32 } %14, 0
  store ptr %15, ptr %5, align 8
  %16 = extractvalue { ptr, i32 } %14, 1
  store i32 %16, ptr %6, align 4
  br label %28

17:                                               ; preds = %10
  %18 = invoke noalias noundef nonnull ptr @_Znwm(i64 noundef 64) #12
          to label %19 unwind label %13

19:                                               ; preds = %17
  %20 = load ptr, ptr %3, align 8
  invoke void @_ZN8ConstantC1EPK4TypeRKNSt7__cxx1112basic_stringIcSt11char_traitsIcESaIcEEE(ptr noundef nonnull align 8 dereferenceable(64) %18, ptr noundef %20, ptr noundef nonnull align 8 dereferenceable(32) %4)
          to label %21 unwind label %22

21:                                               ; preds = %19
  store ptr %18, ptr %2, align 8
  store i32 1, ptr %7, align 4
  br label %26

22:                                               ; preds = %19
  %23 = landingpad { ptr, i32 }
          cleanup
  %24 = extractvalue { ptr, i32 } %23, 0
  store ptr %24, ptr %5, align 8
  %25 = extractvalue { ptr, i32 } %23, 1
  store i32 %25, ptr %6, align 4
  call void @_ZdlPv(ptr noundef %18) #11
  br label %28

26:                                               ; preds = %21, %12
  call void @_ZNSt7__cxx1112basic_stringIcSt11char_traitsIcESaIcEED1Ev(ptr noundef nonnull align 8 dereferenceable(32) %4) #3
  %27 = load ptr, ptr %2, align 8
  ret ptr %27

28:                                               ; preds = %22, %13
  call void @_ZNSt7__cxx1112basic_stringIcSt11char_traitsIcESaIcEED1Ev(ptr noundef nonnull align 8 dereferenceable(32) %4) #3
  br label %29

29:                                               ; preds = %28
  %30 = load ptr, ptr %5, align 8
  %31 = load i32, ptr %6, align 4
  %32 = insertvalue { ptr, i32 } poison, ptr %30, 0
  %33 = insertvalue { ptr, i32 } %32, i32 %31, 1
  resume { ptr, i32 } %33
}