; Function Attrs: mustprogress uwtable
define dso_local noundef ptr @_ZN8Constant11make_randomEPK4Type(ptr noundef %0) local_unnamed_addr #3 align 2 personality ptr @__gxx_personality_v0 {
  %2 = alloca %"class.std::__cxx11::basic_string", align 8
  call fastcc void @_ZL22GenerateRandomConstantB5cxx11PK4Type(ptr dead_on_unwind noalias nonnull writable align 8 %2, ptr noundef %0)
  %3 = load i32, ptr @_ZN5Error8r_error_E, align 4
  %.not = icmp eq i32 %3, 0
  br i1 %.not, label %6, label %_ZN8ConstantC2EPK4TypeRKNSt7__cxx1112basic_stringIcSt11char_traitsIcESaIcEEE.exit

4:                                                ; preds = %6
  %5 = landingpad { ptr, i32 }
          cleanup
  br label %15

6:                                                ; preds = %1
  %7 = invoke noalias noundef nonnull dereferenceable(64) ptr @_Znwm(i64 noundef 64) #18
          to label %8 unwind label %4

8:                                                ; preds = %6
  invoke void @_ZN10ExpressionC2E9eTermType(ptr noundef nonnull align 8 dereferenceable(24) %7, i32 noundef 0)
          to label %.noexc unwind label %13

.noexc:                                           ; preds = %8
  store ptr getelementptr inbounds ({ [24 x ptr] }, ptr @_ZTV8Constant, i64 0, i32 0, i64 2), ptr %7, align 8
  %9 = getelementptr inbounds i8, ptr %7, i64 24
  store ptr %0, ptr %9, align 8
  %10 = getelementptr inbounds i8, ptr %7, i64 32
  invoke void @_ZNSt7__cxx1112basic_stringIcSt11char_traitsIcESaIcEEC1ERKS4_(ptr noundef nonnull align 8 dereferenceable(32) %10, ptr noundef nonnull align 8 dereferenceable(32) %2)
          to label %_ZN8ConstantC2EPK4TypeRKNSt7__cxx1112basic_stringIcSt11char_traitsIcESaIcEEE.exit unwind label %11

11:                                               ; preds = %.noexc
  %12 = landingpad { ptr, i32 }
          cleanup
  call void @_ZN10ExpressionD2Ev(ptr noundef nonnull align 8 dereferenceable(24) %7) #16
  br label %.body

13:                                               ; preds = %8
  %14 = landingpad { ptr, i32 }
          cleanup
  br label %.body

.body:                                            ; preds = %11, %13
  %eh.lpad-body = phi { ptr, i32 } [ %14, %13 ], [ %12, %11 ]
  call void @_ZdlPv(ptr noundef nonnull %7) #17
  br label %15

_ZN8ConstantC2EPK4TypeRKNSt7__cxx1112basic_stringIcSt11char_traitsIcESaIcEEE.exit: ; preds = %.noexc, %1
  %.05 = phi ptr [ null, %1 ], [ %7, %.noexc ]
  call void @_ZNSt7__cxx1112basic_stringIcSt11char_traitsIcESaIcEED1Ev(ptr noundef nonnull align 8 dereferenceable(32) %2) #16
  ret ptr %.05

15:                                               ; preds = %.body, %4
  %.pn = phi { ptr, i32 } [ %eh.lpad-body, %.body ], [ %5, %4 ]
  call void @_ZNSt7__cxx1112basic_stringIcSt11char_traitsIcESaIcEED1Ev(ptr noundef nonnull align 8 dereferenceable(32) %2) #16
  resume { ptr, i32 } %.pn
}